target datalayout = "e-m:e-p270:32:32-p271:32:32-p272:64:64-i64:64-i128:128-f80:128-n8:16:32:64-S128"
target triple = "x86_64-pc-linux-gnu"

%struct.FSEv05_DTableHeader = type { i16, i16 }
%struct.FSEv05_decode_t = type { i16, i8, i8 }

; Function Attrs: inlinehint nounwind uwtable
define internal i32 @BITv05_highbit32(i32 noundef %0) #5 {
  %2 = alloca i32, align 4
  store i32 %0, ptr %2, align 4, !tbaa !3
  %3 = load i32, ptr %2, align 4, !tbaa !3
  %4 = call i32 @llvm.ctlz.i32(i32 %3, i1 true)
  %5 = xor i32 %4, 31
  ret i32 %5
}

; Function Attrs: nounwind uwtable
define internal i32 @FSEv05_tableStep(i32 noundef %0) #0 {
  %2 = alloca i32, align 4
  store i32 %0, ptr %2, align 4, !tbaa !3
  %3 = load i32, ptr %2, align 4, !tbaa !3
  %4 = lshr i32 %3, 1
  %5 = load i32, ptr %2, align 4, !tbaa !3
  %6 = lshr i32 %5, 3
  %7 = add i32 %4, %6
  %8 = add i32 %7, 3
  ret i32 %8
}

; Function Attrs: nounwind uwtable
define i64 @FSEv05_buildDTable(ptr noundef %0, ptr noundef %1, i32 noundef %2, i32 noundef %3) #0 {
  %5 = alloca i64, align 8
  %6 = alloca ptr, align 8
  %7 = alloca ptr, align 8
  %8 = alloca i32, align 4
  %9 = alloca i32, align 4
  %10 = alloca %struct.FSEv05_DTableHeader, align 2
  %11 = alloca ptr, align 8
  %12 = alloca ptr, align 8
  %13 = alloca i32, align 4
  %14 = alloca i32, align 4
  %15 = alloca i32, align 4
  %16 = alloca [256 x i16], align 16
  %17 = alloca i32, align 4
  %18 = alloca i32, align 4
  %19 = alloca i16, align 2
  %20 = alloca i32, align 4
  %21 = alloca i32, align 4
  %22 = alloca i32, align 4
  %23 = alloca i32, align 4
  %24 = alloca i32, align 4
  %25 = alloca i8, align 1
  %26 = alloca i16, align 2
  store ptr %0, ptr %6, align 8, !tbaa !7
  store ptr %1, ptr %7, align 8, !tbaa !10
  store i32 %2, ptr %8, align 4, !tbaa !3
  store i32 %3, ptr %9, align 4, !tbaa !3
  call void @llvm.lifetime.start.p0(i64 4, ptr %10) #11
  call void @llvm.lifetime.start.p0(i64 8, ptr %11) #11
  %27 = load ptr, ptr %6, align 8, !tbaa !7
  %28 = getelementptr inbounds i32, ptr %27, i64 1
  store ptr %28, ptr %11, align 8, !tbaa !12
  call void @llvm.lifetime.start.p0(i64 8, ptr %12) #11
  %29 = load ptr, ptr %11, align 8, !tbaa !12
  store ptr %29, ptr %12, align 8, !tbaa !12
  call void @llvm.lifetime.start.p0(i64 4, ptr %13) #11
  %30 = load i32, ptr %9, align 4, !tbaa !3
  %31 = shl i32 1, %30
  store i32 %31, ptr %13, align 4, !tbaa !3
  call void @llvm.lifetime.start.p0(i64 4, ptr %14) #11
  %32 = load i32, ptr %13, align 4, !tbaa !3
  %33 = sub i32 %32, 1
  store i32 %33, ptr %14, align 4, !tbaa !3
  call void @llvm.lifetime.start.p0(i64 4, ptr %15) #11
  %34 = load i32, ptr %13, align 4, !tbaa !3
  %35 = call i32 @FSEv05_tableStep(i32 noundef %34)
  store i32 %35, ptr %15, align 4, !tbaa !3
  call void @llvm.lifetime.start.p0(i64 512, ptr %16) #11
  call void @llvm.lifetime.start.p0(i64 4, ptr %17) #11
  store i32 0, ptr %17, align 4, !tbaa !3
  call void @llvm.lifetime.start.p0(i64 4, ptr %18) #11
  %36 = load i32, ptr %13, align 4, !tbaa !3
  %37 = sub i32 %36, 1
  store i32 %37, ptr %18, align 4, !tbaa !3
  call void @llvm.lifetime.start.p0(i64 2, ptr %19) #11
  %38 = load i32, ptr %9, align 4, !tbaa !3
  %39 = sub i32 %38, 1
  %40 = shl i32 1, %39
  %41 = trunc i32 %40 to i16
  store i16 %41, ptr %19, align 2, !tbaa !13
  call void @llvm.lifetime.start.p0(i64 4, ptr %20) #11
  store i32 1, ptr %20, align 4, !tbaa !3
  call void @llvm.lifetime.start.p0(i64 4, ptr %21) #11
  %42 = load i32, ptr %8, align 4, !tbaa !3
  %43 = icmp ugt i32 %42, 255
  br i1 %43, label %44, label %45

44:                                               ; preds = %4
  store i64 -46, ptr %5, align 8
  store i32 1, ptr %22, align 4
  br label %210

45:                                               ; preds = %4
  %46 = load i32, ptr %9, align 4, !tbaa !3
  %47 = icmp ugt i32 %46, 12
  br i1 %47, label %48, label %49

48:                                               ; preds = %45
  store i64 -44, ptr %5, align 8
  store i32 1, ptr %22, align 4
  br label %210

49:                                               ; preds = %45
  %50 = load ptr, ptr %12, align 8, !tbaa !12
  %51 = load i32, ptr %8, align 4, !tbaa !3
  %52 = add i32 %51, 1
  %53 = zext i32 %52 to i64
  %54 = mul i64 1, %53
  call void @llvm.memset.p0.i64(ptr align 2 %50, i8 0, i64 %54, i1 false)
  %55 = load i32, ptr %9, align 4, !tbaa !3
  %56 = trunc i32 %55 to i16
  %57 = getelementptr inbounds nuw %struct.FSEv05_DTableHeader, ptr %10, i32 0, i32 0
  store i16 %56, ptr %57, align 2, !tbaa !15
  store i32 0, ptr %21, align 4, !tbaa !3
  br label %58

58:                                               ; preds = %103, %49
  %59 = load i32, ptr %21, align 4, !tbaa !3
  %60 = load i32, ptr %8, align 4, !tbaa !3
  %61 = icmp ule i32 %59, %60
  br i1 %61, label %62, label %106

62:                                               ; preds = %58
  %63 = load ptr, ptr %7, align 8, !tbaa !10
  %64 = load i32, ptr %21, align 4, !tbaa !3
  %65 = zext i32 %64 to i64
  %66 = getelementptr inbounds nuw i16, ptr %63, i64 %65
  %67 = load i16, ptr %66, align 2, !tbaa !13
  %68 = sext i16 %67 to i32
  %69 = icmp eq i32 %68, -1
  br i1 %69, label %70, label %82

70:                                               ; preds = %62
  %71 = load i32, ptr %21, align 4, !tbaa !3
  %72 = trunc i32 %71 to i8
  %73 = load ptr, ptr %12, align 8, !tbaa !12
  %74 = load i32, ptr %18, align 4, !tbaa !3
  %75 = add i32 %74, -1
  store i32 %75, ptr %18, align 4, !tbaa !3
  %76 = zext i32 %74 to i64
  %77 = getelementptr inbounds nuw %struct.FSEv05_decode_t, ptr %73, i64 %76
  %78 = getelementptr inbounds nuw %struct.FSEv05_decode_t, ptr %77, i32 0, i32 1
  store i8 %72, ptr %78, align 2, !tbaa !17
  %79 = load i32, ptr %21, align 4, !tbaa !3
  %80 = zext i32 %79 to i64
  %81 = getelementptr inbounds nuw [256 x i16], ptr %16, i64 0, i64 %80
  store i16 1, ptr %81, align 2, !tbaa !13
  br label %102

82:                                               ; preds = %62
  %83 = load ptr, ptr %7, align 8, !tbaa !10
  %84 = load i32, ptr %21, align 4, !tbaa !3
  %85 = zext i32 %84 to i64
  %86 = getelementptr inbounds nuw i16, ptr %83, i64 %85
  %87 = load i16, ptr %86, align 2, !tbaa !13
  %88 = sext i16 %87 to i32
  %89 = load i16, ptr %19, align 2, !tbaa !13
  %90 = sext i16 %89 to i32
  %91 = icmp sge i32 %88, %90
  br i1 %91, label %92, label %93

92:                                               ; preds = %82
  store i32 0, ptr %20, align 4, !tbaa !3
  br label %93

93:                                               ; preds = %92, %82
  %94 = load ptr, ptr %7, align 8, !tbaa !10
  %95 = load i32, ptr %21, align 4, !tbaa !3
  %96 = zext i32 %95 to i64
  %97 = getelementptr inbounds nuw i16, ptr %94, i64 %96
  %98 = load i16, ptr %97, align 2, !tbaa !13
  %99 = load i32, ptr %21, align 4, !tbaa !3
  %100 = zext i32 %99 to i64
  %101 = getelementptr inbounds nuw [256 x i16], ptr %16, i64 0, i64 %100
  store i16 %98, ptr %101, align 2, !tbaa !13
  br label %102

102:                                              ; preds = %93, %70
  br label %103

103:                                              ; preds = %102
  %104 = load i32, ptr %21, align 4, !tbaa !3
  %105 = add i32 %104, 1
  store i32 %105, ptr %21, align 4, !tbaa !3
  br label %58, !llvm.loop !19

106:                                              ; preds = %58
  store i32 0, ptr %21, align 4, !tbaa !3
  br label %107

107:                                              ; preds = %149, %106
  %108 = load i32, ptr %21, align 4, !tbaa !3
  %109 = load i32, ptr %8, align 4, !tbaa !3
  %110 = icmp ule i32 %108, %109
  br i1 %110, label %111, label %152

111:                                              ; preds = %107
  call void @llvm.lifetime.start.p0(i64 4, ptr %23) #11
  store i32 0, ptr %23, align 4, !tbaa !3
  br label %112

112:                                              ; preds = %145, %111
  %113 = load i32, ptr %23, align 4, !tbaa !3
  %114 = load ptr, ptr %7, align 8, !tbaa !10
  %115 = load i32, ptr %21, align 4, !tbaa !3
  %116 = zext i32 %115 to i64
  %117 = getelementptr inbounds nuw i16, ptr %114, i64 %116
  %118 = load i16, ptr %117, align 2, !tbaa !13
  %119 = sext i16 %118 to i32
  %120 = icmp slt i32 %113, %119
  br i1 %120, label %121, label %148

121:                                              ; preds = %112
  %122 = load i32, ptr %21, align 4, !tbaa !3
  %123 = trunc i32 %122 to i8
  %124 = load ptr, ptr %12, align 8, !tbaa !12
  %125 = load i32, ptr %17, align 4, !tbaa !3
  %126 = zext i32 %125 to i64
  %127 = getelementptr inbounds nuw %struct.FSEv05_decode_t, ptr %124, i64 %126
  %128 = getelementptr inbounds nuw %struct.FSEv05_decode_t, ptr %127, i32 0, i32 1
  store i8 %123, ptr %128, align 2, !tbaa !17
  %129 = load i32, ptr %17, align 4, !tbaa !3
  %130 = load i32, ptr %15, align 4, !tbaa !3
  %131 = add i32 %129, %130
  %132 = load i32, ptr %14, align 4, !tbaa !3
  %133 = and i32 %131, %132
  store i32 %133, ptr %17, align 4, !tbaa !3
  br label %134

134:                                              ; preds = %138, %121
  %135 = load i32, ptr %17, align 4, !tbaa !3
  %136 = load i32, ptr %18, align 4, !tbaa !3
  %137 = icmp ugt i32 %135, %136
  br i1 %137, label %138, label %144

138:                                              ; preds = %134
  %139 = load i32, ptr %17, align 4, !tbaa !3
  %140 = load i32, ptr %15, align 4, !tbaa !3
  %141 = add i32 %139, %140
  %142 = load i32, ptr %14, align 4, !tbaa !3
  %143 = and i32 %141, %142
  store i32 %143, ptr %17, align 4, !tbaa !3
  br label %134, !llvm.loop !21

144:                                              ; preds = %134
  br label %145

145:                                              ; preds = %144
  %146 = load i32, ptr %23, align 4, !tbaa !3
  %147 = add nsw i32 %146, 1
  store i32 %147, ptr %23, align 4, !tbaa !3
  br label %112, !llvm.loop !22

148:                                              ; preds = %112
  call void @llvm.lifetime.end.p0(i64 4, ptr %23) #11
  br label %149

149:                                              ; preds = %148
  %150 = load i32, ptr %21, align 4, !tbaa !3
  %151 = add i32 %150, 1
  store i32 %151, ptr %21, align 4, !tbaa !3
  br label %107, !llvm.loop !23

152:                                              ; preds = %107
  %153 = load i32, ptr %17, align 4, !tbaa !3
  %154 = icmp ne i32 %153, 0
  br i1 %154, label %155, label %156

155:                                              ; preds = %152
  store i64 -1, ptr %5, align 8
  store i32 1, ptr %22, align 4
  br label %210

156:                                              ; preds = %152
  call void @llvm.lifetime.start.p0(i64 4, ptr %24) #11
  store i32 0, ptr %24, align 4, !tbaa !3
  br label %157

157:                                              ; preds = %202, %156
  %158 = load i32, ptr %24, align 4, !tbaa !3
  %159 = load i32, ptr %13, align 4, !tbaa !3
  %160 = icmp ult i32 %158, %159
  br i1 %160, label %161, label %205

161:                                              ; preds = %157
  call void @llvm.lifetime.start.p0(i64 1, ptr %25) #11
  %162 = load ptr, ptr %12, align 8, !tbaa !12
  %163 = load i32, ptr %24, align 4, !tbaa !3
  %164 = zext i32 %163 to i64
  %165 = getelementptr inbounds nuw %struct.FSEv05_decode_t, ptr %162, i64 %164
  %166 = getelementptr inbounds nuw %struct.FSEv05_decode_t, ptr %165, i32 0, i32 1
  %167 = load i8, ptr %166, align 2, !tbaa !17
  store i8 %167, ptr %25, align 1, !tbaa !24
  call void @llvm.lifetime.start.p0(i64 2, ptr %26) #11
  %168 = load i8, ptr %25, align 1, !tbaa !24
  %169 = zext i8 %168 to i64
  %170 = getelementptr inbounds nuw [256 x i16], ptr %16, i64 0, i64 %169
  %171 = load i16, ptr %170, align 2, !tbaa !13
  %172 = add i16 %171, 1
  store i16 %172, ptr %170, align 2, !tbaa !13
  store i16 %171, ptr %26, align 2, !tbaa !13
  %173 = load i32, ptr %9, align 4, !tbaa !3
  %174 = load i16, ptr %26, align 2, !tbaa !13
  %175 = zext i16 %174 to i32
  %176 = call i32 @BITv05_highbit32(i32 noundef %175)
  %177 = sub i32 %173, %176
  %178 = trunc i32 %177 to i8
  %179 = load ptr, ptr %12, align 8, !tbaa !12
  %180 = load i32, ptr %24, align 4, !tbaa !3
  %181 = zext i32 %180 to i64
  %182 = getelementptr inbounds nuw %struct.FSEv05_decode_t, ptr %179, i64 %181
  %183 = getelementptr inbounds nuw %struct.FSEv05_decode_t, ptr %182, i32 0, i32 2
  store i8 %178, ptr %183, align 1, !tbaa !25
  %184 = load i16, ptr %26, align 2, !tbaa !13
  %185 = zext i16 %184 to i32
  %186 = load ptr, ptr %12, align 8, !tbaa !12
  %187 = load i32, ptr %24, align 4, !tbaa !3
  %188 = zext i32 %187 to i64
  %189 = getelementptr inbounds nuw %struct.FSEv05_decode_t, ptr %186, i64 %188
  %190 = getelementptr inbounds nuw %struct.FSEv05_decode_t, ptr %189, i32 0, i32 2
  %191 = load i8, ptr %190, align 1, !tbaa !25
  %192 = zext i8 %191 to i32
  %193 = shl i32 %185, %192
  %194 = load i32, ptr %13, align 4, !tbaa !3
  %195 = sub i32 %193, %194
  %196 = trunc i32 %195 to i16
  %197 = load ptr, ptr %12, align 8, !tbaa !12
  %198 = load i32, ptr %24, align 4, !tbaa !3
  %199 = zext i32 %198 to i64
  %200 = getelementptr inbounds nuw %struct.FSEv05_decode_t, ptr %197, i64 %199
  %201 = getelementptr inbounds nuw %struct.FSEv05_decode_t, ptr %200, i32 0, i32 0
  store i16 %196, ptr %201, align 2, !tbaa !26
  call void @llvm.lifetime.end.p0(i64 2, ptr %26) #11
  call void @llvm.lifetime.end.p0(i64 1, ptr %25) #11
  br label %202

202:                                              ; preds = %161
  %203 = load i32, ptr %24, align 4, !tbaa !3
  %204 = add i32 %203, 1
  store i32 %204, ptr %24, align 4, !tbaa !3
  br label %157, !llvm.loop !27

205:                                              ; preds = %157
  call void @llvm.lifetime.end.p0(i64 4, ptr %24) #11
  %206 = load i32, ptr %20, align 4, !tbaa !3
  %207 = trunc i32 %206 to i16
  %208 = getelementptr inbounds nuw %struct.FSEv05_DTableHeader, ptr %10, i32 0, i32 1
  store i16 %207, ptr %208, align 2, !tbaa !28
  %209 = load ptr, ptr %6, align 8, !tbaa !7
  call void @llvm.memcpy.p0.p0.i64(ptr align 4 %209, ptr align 2 %10, i64 4, i1 false)
  store i64 0, ptr %5, align 8
  store i32 1, ptr %22, align 4
  br label %210

210:                                              ; preds = %205, %155, %48, %44
  call void @llvm.lifetime.end.p0(i64 4, ptr %21) #11
  call void @llvm.lifetime.end.p0(i64 4, ptr %20) #11
  call void @llvm.lifetime.end.p0(i64 2, ptr %19) #11
  call void @llvm.lifetime.end.p0(i64 4, ptr %18) #11
  call void @llvm.lifetime.end.p0(i64 4, ptr %17) #11
  call void @llvm.lifetime.end.p0(i64 512, ptr %16) #11
  call void @llvm.lifetime.end.p0(i64 4, ptr %15) #11
  call void @llvm.lifetime.end.p0(i64 4, ptr %14) #11
  call void @llvm.lifetime.end.p0(i64 4, ptr %13) #11
  call void @llvm.lifetime.end.p0(i64 8, ptr %12) #11
  call void @llvm.lifetime.end.p0(i64 8, ptr %11) #11
  call void @llvm.lifetime.end.p0(i64 4, ptr %10) #11
  %211 = load i64, ptr %5, align 8
  ret i64 %211
}